target datalayout = "e-m:e-p270:32:32-p271:32:32-p272:64:64-i64:64-i128:128-f80:128-n8:16:32:64-S128"
target triple = "x86_64-pc-linux-gnu"

%struct.H5O_efl_t = type { i64, i64, i64, ptr }

@H5O_init_g = external global i8, align 1
@H5_libterm_g = external global i8, align 1

; Function Attrs: nounwind uwtable
define internal i64 @H5O__efl_size(ptr noundef %0, i1 noundef zeroext %1, ptr noundef %2) #0 {
  %4 = alloca ptr, align 8
  %5 = alloca i8, align 1
  %6 = alloca ptr, align 8
  %7 = alloca ptr, align 8
  %8 = alloca i64, align 8
  store ptr %0, ptr %4, align 8, !tbaa !3
  %9 = zext i1 %1 to i8
  store i8 %9, ptr %5, align 1, !tbaa !23
  store ptr %2, ptr %6, align 8, !tbaa !22
  call void @llvm.lifetime.start.p0(i64 8, ptr %7) #8
  %10 = load ptr, ptr %6, align 8, !tbaa !22
  store ptr %10, ptr %7, align 8, !tbaa !18
  call void @llvm.lifetime.start.p0(i64 8, ptr %8) #8
  store i64 0, ptr %8, align 8, !tbaa !14
  %11 = load i8, ptr @H5O_init_g, align 1, !tbaa !23, !range !25, !noundef !26
  %12 = trunc i8 %11 to i1
  br i1 %12, label %17, label %13

13:                                               ; preds = %3
  %14 = load i8, ptr @H5_libterm_g, align 1, !tbaa !23, !range !25, !noundef !26
  %15 = trunc i8 %14 to i1
  %16 = xor i1 %15, true
  br label %17

17:                                               ; preds = %13, %3
  %18 = phi i1 [ true, %3 ], [ %16, %13 ]
  %19 = xor i1 %18, true
  %20 = xor i1 %19, true
  %21 = zext i1 %20 to i32
  %22 = sext i32 %21 to i64
  %23 = call i64 @llvm.expect.i64(i64 %22, i64 1)
  %24 = icmp ne i64 %23, 0
  br i1 %24, label %25, label %48

25:                                               ; preds = %17
  %26 = load ptr, ptr %4, align 8, !tbaa !3
  %27 = call zeroext i8 @H5F_sizeof_addr(ptr noundef %26)
  %28 = zext i8 %27 to i64
  %29 = add i64 %28, 2
  %30 = add i64 %29, 2
  %31 = add i64 %30, 4
  %32 = load ptr, ptr %7, align 8, !tbaa !18
  %33 = getelementptr inbounds nuw %struct.H5O_efl_t, ptr %32, i32 0, i32 2
  %34 = load i64, ptr %33, align 8, !tbaa !31
  %35 = load ptr, ptr %4, align 8, !tbaa !3
  %36 = call zeroext i8 @H5F_sizeof_size(ptr noundef %35)
  %37 = zext i8 %36 to i64
  %38 = load ptr, ptr %4, align 8, !tbaa !3
  %39 = call zeroext i8 @H5F_sizeof_size(ptr noundef %38)
  %40 = zext i8 %39 to i64
  %41 = add i64 %37, %40
  %42 = load ptr, ptr %4, align 8, !tbaa !3
  %43 = call zeroext i8 @H5F_sizeof_size(ptr noundef %42)
  %44 = zext i8 %43 to i64
  %45 = add i64 %41, %44
  %46 = mul i64 %34, %45
  %47 = add i64 %31, %46
  store i64 %47, ptr %8, align 8, !tbaa !14
  br label %48

48:                                               ; preds = %25, %17
  %49 = load i64, ptr %8, align 8, !tbaa !14
  call void @llvm.lifetime.end.p0(i64 8, ptr %8) #8
  call void @llvm.lifetime.end.p0(i64 8, ptr %7) #8
  ret i64 %49
}