; Function Attrs: nounwind uwtable
define internal i64 @H5O__efl_size(ptr noundef %0, i1 zeroext %1, ptr noundef readonly captures(none) %2) #0 {
  %4 = load i8, ptr @H5O_init_g, align 1, !tbaa !8, !range !10, !noundef !11
  %5 = trunc nuw i8 %4 to i1
  %6 = load i8, ptr @H5_libterm_g, align 1, !range !10
  %7 = trunc nuw i8 %6 to i1
  %8 = xor i1 %7, true
  %9 = select i1 %5, i1 true, i1 %8
  br i1 %9, label %10, label %26, !prof !12

10:                                               ; preds = %3
  %11 = tail call zeroext i8 @H5F_sizeof_addr(ptr noundef %0) #11
  %12 = zext i8 %11 to i64
  %13 = add nuw nsw i64 %12, 8
  %14 = getelementptr inbounds nuw i8, ptr %2, i64 16
  %15 = load i64, ptr %14, align 8, !tbaa !19
  %16 = tail call zeroext i8 @H5F_sizeof_size(ptr noundef %0) #11
  %17 = zext i8 %16 to i64
  %18 = tail call zeroext i8 @H5F_sizeof_size(ptr noundef %0) #11
  %19 = zext i8 %18 to i64
  %20 = add nuw nsw i64 %19, %17
  %21 = tail call zeroext i8 @H5F_sizeof_size(ptr noundef %0) #11
  %22 = zext i8 %21 to i64
  %23 = add nuw nsw i64 %20, %22
  %24 = mul i64 %23, %15
  %25 = add i64 %13, %24
  br label %26

26:                                               ; preds = %10, %3
  %.0 = phi i64 [ %25, %10 ], [ 0, %3 ]
  ret i64 %.0
}